target datalayout = "e-m:e-p270:32:32-p271:32:32-p272:64:64-i64:64-i128:128-f80:128-n8:16:32:64-S128"
target triple = "x86_64-pc-linux-gnu"

%class.TableStatistics = type { i64, i64, i64, i64, float, float, float, i64, i64, i64, i64, i64, float, float }

@.str = private unnamed_addr constant [15 x i8] c"%s statistics:\00", align 1
@.str.4 = private unnamed_addr constant [54 x i8] c"Number of buckets       : %9lu = %9lu bytes, each %lu\00", align 1
@.str.5 = private unnamed_addr constant [54 x i8] c"Number of entries       : %9lu = %9lu bytes, each %lu\00", align 1
@.str.6 = private unnamed_addr constant [55 x i8] c"Number of literals      : %9lu = %9lu bytes, avg %7.3f\00", align 1
@.str.7 = private unnamed_addr constant [43 x i8] c"Total footprint         : %9s = %9lu bytes\00", align 1
@.str.8 = private unnamed_addr constant [1 x i8] zeroinitializer, align 1
@.str.9 = private unnamed_addr constant [32 x i8] c"Average bucket size     : %9.3f\00", align 1
@.str.10 = private unnamed_addr constant [32 x i8] c"Variance of bucket size : %9.3f\00", align 1
@.str.11 = private unnamed_addr constant [32 x i8] c"Std. dev. of bucket size: %9.3f\00", align 1
@.str.12 = private unnamed_addr constant [31 x i8] c"Maximum bucket size     : %9lu\00", align 1

; Function Attrs: mustprogress nounwind uwtable
define hidden void @_ZN15TableStatistics5printEP12outputStreamPKc(ptr noundef nonnull align 8 dereferenceable(96) %0, ptr noundef %1, ptr noundef %2) #1 align 2 {
  %4 = alloca ptr, align 8
  %5 = alloca ptr, align 8
  %6 = alloca ptr, align 8
  %7 = alloca float, align 4
  store ptr %0, ptr %4, align 8
  store ptr %1, ptr %5, align 8
  store ptr %2, ptr %6, align 8
  %8 = load ptr, ptr %4, align 8
  %9 = load ptr, ptr %5, align 8
  %10 = load ptr, ptr %6, align 8
  call void (ptr, ptr, ...) @_ZN12outputStream8print_crEPKcz(ptr noundef nonnull align 8 dereferenceable(56) %9, ptr noundef @.str, ptr noundef %10)
  %11 = load ptr, ptr %5, align 8
  %12 = getelementptr inbounds %class.TableStatistics, ptr %8, i32 0, i32 1
  %13 = load i64, ptr %12, align 8
  %14 = getelementptr inbounds %class.TableStatistics, ptr %8, i32 0, i32 7
  %15 = load i64, ptr %14, align 8
  %16 = getelementptr inbounds %class.TableStatistics, ptr %8, i32 0, i32 10
  %17 = load i64, ptr %16, align 8
  call void (ptr, ptr, ...) @_ZN12outputStream8print_crEPKcz(ptr noundef nonnull align 8 dereferenceable(56) %11, ptr noundef @.str.4, i64 noundef %13, i64 noundef %15, i64 noundef %17)
  %18 = load ptr, ptr %5, align 8
  %19 = getelementptr inbounds %class.TableStatistics, ptr %8, i32 0, i32 2
  %20 = load i64, ptr %19, align 8
  %21 = getelementptr inbounds %class.TableStatistics, ptr %8, i32 0, i32 8
  %22 = load i64, ptr %21, align 8
  %23 = getelementptr inbounds %class.TableStatistics, ptr %8, i32 0, i32 11
  %24 = load i64, ptr %23, align 8
  call void (ptr, ptr, ...) @_ZN12outputStream8print_crEPKcz(ptr noundef nonnull align 8 dereferenceable(56) %18, ptr noundef @.str.5, i64 noundef %20, i64 noundef %22, i64 noundef %24)
  %25 = getelementptr inbounds %class.TableStatistics, ptr %8, i32 0, i32 0
  %26 = load i64, ptr %25, align 8
  %27 = icmp ne i64 %26, 0
  br i1 %27, label %28, label %49

28:                                               ; preds = %3
  %29 = getelementptr inbounds %class.TableStatistics, ptr %8, i32 0, i32 2
  %30 = load i64, ptr %29, align 8
  %31 = icmp ule i64 %30, 0
  br i1 %31, label %32, label %33

32:                                               ; preds = %28
  br label %40

33:                                               ; preds = %28
  %34 = getelementptr inbounds %class.TableStatistics, ptr %8, i32 0, i32 0
  %35 = load i64, ptr %34, align 8
  %36 = getelementptr inbounds %class.TableStatistics, ptr %8, i32 0, i32 2
  %37 = load i64, ptr %36, align 8
  %38 = udiv i64 %35, %37
  %39 = uitofp i64 %38 to float
  br label %40

40:                                               ; preds = %33, %32
  %41 = phi float [ 0.000000e+00, %32 ], [ %39, %33 ]
  store float %41, ptr %7, align 4
  %42 = load ptr, ptr %5, align 8
  %43 = getelementptr inbounds %class.TableStatistics, ptr %8, i32 0, i32 2
  %44 = load i64, ptr %43, align 8
  %45 = getelementptr inbounds %class.TableStatistics, ptr %8, i32 0, i32 0
  %46 = load i64, ptr %45, align 8
  %47 = load float, ptr %7, align 4
  %48 = fpext float %47 to double
  call void (ptr, ptr, ...) @_ZN12outputStream8print_crEPKcz(ptr noundef nonnull align 8 dereferenceable(56) %42, ptr noundef @.str.6, i64 noundef %44, i64 noundef %46, double noundef %48)
  br label %49

49:                                               ; preds = %40, %3
  %50 = load ptr, ptr %5, align 8
  %51 = getelementptr inbounds %class.TableStatistics, ptr %8, i32 0, i32 9
  %52 = load i64, ptr %51, align 8
  call void (ptr, ptr, ...) @_ZN12outputStream8print_crEPKcz(ptr noundef nonnull align 8 dereferenceable(56) %50, ptr noundef @.str.7, ptr noundef @.str.8, i64 noundef %52)
  %53 = load ptr, ptr %5, align 8
  %54 = getelementptr inbounds %class.TableStatistics, ptr %8, i32 0, i32 4
  %55 = load float, ptr %54, align 8
  %56 = fpext float %55 to double
  call void (ptr, ptr, ...) @_ZN12outputStream8print_crEPKcz(ptr noundef nonnull align 8 dereferenceable(56) %53, ptr noundef @.str.9, double noundef %56)
  %57 = load ptr, ptr %5, align 8
  %58 = getelementptr inbounds %class.TableStatistics, ptr %8, i32 0, i32 5
  %59 = load float, ptr %58, align 4
  %60 = fpext float %59 to double
  call void (ptr, ptr, ...) @_ZN12outputStream8print_crEPKcz(ptr noundef nonnull align 8 dereferenceable(56) %57, ptr noundef @.str.10, double noundef %60)
  %61 = load ptr, ptr %5, align 8
  %62 = getelementptr inbounds %class.TableStatistics, ptr %8, i32 0, i32 6
  %63 = load float, ptr %62, align 8
  %64 = fpext float %63 to double
  call void (ptr, ptr, ...) @_ZN12outputStream8print_crEPKcz(ptr noundef nonnull align 8 dereferenceable(56) %61, ptr noundef @.str.11, double noundef %64)
  %65 = load ptr, ptr %5, align 8
  %66 = getelementptr inbounds %class.TableStatistics, ptr %8, i32 0, i32 3
  %67 = load i64, ptr %66, align 8
  call void (ptr, ptr, ...) @_ZN12outputStream8print_crEPKcz(ptr noundef nonnull align 8 dereferenceable(56) %65, ptr noundef @.str.12, i64 noundef %67)
  ret void
}