; Function Attrs: mustprogress nounwind uwtable
define hidden void @_ZN15TableStatistics5printEP12outputStreamPKc(ptr nocapture noundef nonnull readonly align 8 dereferenceable(96) %0, ptr noundef nonnull %1, ptr noundef %2) local_unnamed_addr #2 align 2 {
  tail call void (ptr, ptr, ...) @_ZN12outputStream8print_crEPKcz(ptr noundef nonnull align 8 dereferenceable(56) %1, ptr noundef nonnull @.str, ptr noundef %2) #8
  %4 = getelementptr inbounds i8, ptr %0, i64 8
  %5 = load i64, ptr %4, align 8
  %6 = getelementptr inbounds i8, ptr %0, i64 48
  %7 = load i64, ptr %6, align 8
  %8 = getelementptr inbounds i8, ptr %0, i64 72
  %9 = load i64, ptr %8, align 8
  tail call void (ptr, ptr, ...) @_ZN12outputStream8print_crEPKcz(ptr noundef nonnull align 8 dereferenceable(56) %1, ptr noundef nonnull @.str.4, i64 noundef %5, i64 noundef %7, i64 noundef %9) #8
  %10 = getelementptr inbounds i8, ptr %0, i64 16
  %11 = load i64, ptr %10, align 8
  %12 = getelementptr inbounds i8, ptr %0, i64 56
  %13 = load i64, ptr %12, align 8
  %14 = getelementptr inbounds i8, ptr %0, i64 80
  %15 = load i64, ptr %14, align 8
  tail call void (ptr, ptr, ...) @_ZN12outputStream8print_crEPKcz(ptr noundef nonnull align 8 dereferenceable(56) %1, ptr noundef nonnull @.str.5, i64 noundef %11, i64 noundef %13, i64 noundef %15) #8
  %16 = load i64, ptr %0, align 8
  %.not = icmp eq i64 %16, 0
  br i1 %.not, label %26, label %17

17:                                               ; preds = %3
  %18 = load i64, ptr %10, align 8
  %19 = icmp eq i64 %18, 0
  br i1 %19, label %24, label %20

20:                                               ; preds = %17
  %21 = udiv i64 %16, %18
  %22 = uitofp i64 %21 to float
  %23 = fpext float %22 to double
  br label %24

24:                                               ; preds = %17, %20
  %25 = phi double [ %23, %20 ], [ 0.000000e+00, %17 ]
  tail call void (ptr, ptr, ...) @_ZN12outputStream8print_crEPKcz(ptr noundef nonnull align 8 dereferenceable(56) %1, ptr noundef nonnull @.str.6, i64 noundef %18, i64 noundef %16, double noundef %25) #8
  br label %26

26:                                               ; preds = %24, %3
  %27 = getelementptr inbounds i8, ptr %0, i64 64
  %28 = load i64, ptr %27, align 8
  tail call void (ptr, ptr, ...) @_ZN12outputStream8print_crEPKcz(ptr noundef nonnull align 8 dereferenceable(56) %1, ptr noundef nonnull @.str.7, ptr noundef nonnull @.str.8, i64 noundef %28) #8
  %29 = getelementptr inbounds i8, ptr %0, i64 32
  %30 = load float, ptr %29, align 8
  %31 = fpext float %30 to double
  tail call void (ptr, ptr, ...) @_ZN12outputStream8print_crEPKcz(ptr noundef nonnull align 8 dereferenceable(56) %1, ptr noundef nonnull @.str.9, double noundef %31) #8
  %32 = getelementptr inbounds i8, ptr %0, i64 36
  %33 = load float, ptr %32, align 4
  %34 = fpext float %33 to double
  tail call void (ptr, ptr, ...) @_ZN12outputStream8print_crEPKcz(ptr noundef nonnull align 8 dereferenceable(56) %1, ptr noundef nonnull @.str.10, double noundef %34) #8
  %35 = getelementptr inbounds i8, ptr %0, i64 40
  %36 = load float, ptr %35, align 8
  %37 = fpext float %36 to double
  tail call void (ptr, ptr, ...) @_ZN12outputStream8print_crEPKcz(ptr noundef nonnull align 8 dereferenceable(56) %1, ptr noundef nonnull @.str.11, double noundef %37) #8
  %38 = getelementptr inbounds i8, ptr %0, i64 24
  %39 = load i64, ptr %38, align 8
  tail call void (ptr, ptr, ...) @_ZN12outputStream8print_crEPKcz(ptr noundef nonnull align 8 dereferenceable(56) %1, ptr noundef nonnull @.str.12, i64 noundef %39) #8
  ret void
}